target datalayout = "e-m:e-p270:32:32-p271:32:32-p272:64:64-i64:64-i128:128-f80:128-n8:16:32:64-S128"
target triple = "x86_64-pc-linux-gnu"

@libctx = internal global ptr null, align 8
@.str.14 = private unnamed_addr constant [30 x i8] c"../openssl/test/quicapitest.c\00", align 1
@cert = internal global ptr null, align 8
@privkey = internal global ptr null, align 8
@.str.61 = private unnamed_addr constant [43 x i8] c"Blocking tests not supported in this build\00", align 1
@.str.62 = private unnamed_addr constant [5 x i8] c"cctx\00", align 1
@.str.67 = private unnamed_addr constant [49 x i8] c"qtest_create_quic_connection(qtserv, clientquic)\00", align 1
@.str.225 = private unnamed_addr constant [102 x i8] c"qtest_create_quic_objects(libctx, cctx, NULL, cert, privkey, flags, &qtserv, &clientquic, NULL, NULL)\00", align 1
@.str.226 = private unnamed_addr constant [81 x i8] c"qtest_create_quic_connection_ex(qtserv, clientquic, SSL_ERROR_WANT_RETRY_VERIFY)\00", align 1
@.str.227 = private unnamed_addr constant [21 x i8] c"SSL_want(clientquic)\00", align 1
@.str.228 = private unnamed_addr constant [17 x i8] c"SSL_RETRY_VERIFY\00", align 1

; Function Attrs: nounwind uwtable
define internal i32 @test_non_io_retry(i32 noundef %0) #0 {
  %2 = alloca i32, align 4
  %3 = alloca i32, align 4
  %4 = alloca ptr, align 8
  %5 = alloca ptr, align 8
  %6 = alloca ptr, align 8
  %7 = alloca i32, align 4
  %8 = alloca i32, align 4
  %9 = alloca i32, align 4
  %10 = alloca i32, align 4
  store i32 %0, ptr %3, align 4, !tbaa !13
  call void @llvm.lifetime.start.p0(i64 8, ptr %4) #8
  call void @llvm.lifetime.start.p0(i64 8, ptr %5) #8
  store ptr null, ptr %5, align 8, !tbaa !17
  call void @llvm.lifetime.start.p0(i64 8, ptr %6) #8
  store ptr null, ptr %6, align 8, !tbaa !19
  call void @llvm.lifetime.start.p0(i64 4, ptr %7) #8
  store i32 0, ptr %7, align 4, !tbaa !13
  call void @llvm.lifetime.start.p0(i64 4, ptr %8) #8
  store i32 0, ptr %8, align 4, !tbaa !13
  call void @llvm.lifetime.start.p0(i64 4, ptr %9) #8
  store i32 0, ptr %9, align 4, !tbaa !13
  %11 = load i32, ptr %3, align 4, !tbaa !13
  %12 = icmp sge i32 %11, 1
  br i1 %12, label %13, label %18

13:                                               ; preds = %1
  %14 = call i32 @qtest_supports_blocking()
  %15 = icmp ne i32 %14, 0
  br i1 %15, label %18, label %16

16:                                               ; preds = %13
  %17 = call i32 (ptr, i32, ptr, ...) @test_skip(ptr noundef @.str.14, i32 noundef 1253, ptr noundef @.str.61)
  store i32 %17, ptr %2, align 4
  store i32 1, ptr %10, align 4
  br label %70

18:                                               ; preds = %13, %1
  %19 = load ptr, ptr @libctx, align 8, !tbaa !4
  %20 = call ptr @OSSL_QUIC_client_method()
  %21 = call ptr @SSL_CTX_new_ex(ptr noundef %19, ptr noundef null, ptr noundef %20)
  store ptr %21, ptr %4, align 8, !tbaa !15
  %22 = load ptr, ptr %4, align 8, !tbaa !15
  %23 = call i32 @test_ptr(ptr noundef @.str.14, i32 noundef 1256, ptr noundef @.str.62, ptr noundef %22)
  %24 = icmp ne i32 %23, 0
  br i1 %24, label %26, label %25

25:                                               ; preds = %18
  br label %65

26:                                               ; preds = %18
  %27 = load ptr, ptr %4, align 8, !tbaa !15
  call void @SSL_CTX_set_cert_verify_callback(ptr noundef %27, ptr noundef @non_io_retry_cert_verify_cb, ptr noundef %9)
  %28 = load i32, ptr %3, align 4, !tbaa !13
  %29 = icmp sge i32 %28, 1
  %30 = select i1 %29, i32 1, i32 0
  store i32 %30, ptr %8, align 4, !tbaa !13
  %31 = load ptr, ptr @libctx, align 8, !tbaa !4
  %32 = load ptr, ptr %4, align 8, !tbaa !15
  %33 = load ptr, ptr @cert, align 8, !tbaa !11
  %34 = load ptr, ptr @privkey, align 8, !tbaa !11
  %35 = load i32, ptr %8, align 4, !tbaa !13
  %36 = call i32 @qtest_create_quic_objects(ptr noundef %31, ptr noundef %32, ptr noundef null, ptr noundef %33, ptr noundef %34, i32 noundef %35, ptr noundef %6, ptr noundef %5, ptr noundef null, ptr noundef null)
  %37 = icmp ne i32 %36, 0
  %38 = zext i1 %37 to i32
  %39 = call i32 @test_true(ptr noundef @.str.14, i32 noundef 1264, ptr noundef @.str.225, i32 noundef %38)
  %40 = icmp ne i32 %39, 0
  br i1 %40, label %41, label %54

41:                                               ; preds = %26
  %42 = load ptr, ptr %6, align 8, !tbaa !19
  %43 = load ptr, ptr %5, align 8, !tbaa !17
  %44 = call i32 @qtest_create_quic_connection_ex(ptr noundef %42, ptr noundef %43, i32 noundef 12)
  %45 = icmp ne i32 %44, 0
  %46 = zext i1 %45 to i32
  %47 = call i32 @test_true(ptr noundef @.str.14, i32 noundef 1266, ptr noundef @.str.226, i32 noundef %46)
  %48 = icmp ne i32 %47, 0
  br i1 %48, label %49, label %54

49:                                               ; preds = %41
  %50 = load ptr, ptr %5, align 8, !tbaa !17
  %51 = call i32 @SSL_want(ptr noundef %50)
  %52 = call i32 @test_int_eq(ptr noundef @.str.14, i32 noundef 1267, ptr noundef @.str.227, ptr noundef @.str.228, i32 noundef %51, i32 noundef 8)
  %53 = icmp ne i32 %52, 0
  br i1 %53, label %55, label %54

54:                                               ; preds = %49, %41, %26
  br label %65

55:                                               ; preds = %49
  store i32 1, ptr %9, align 4, !tbaa !13
  %56 = load ptr, ptr %6, align 8, !tbaa !19
  %57 = load ptr, ptr %5, align 8, !tbaa !17
  %58 = call i32 @qtest_create_quic_connection(ptr noundef %56, ptr noundef %57)
  %59 = icmp ne i32 %58, 0
  %60 = zext i1 %59 to i32
  %61 = call i32 @test_true(ptr noundef @.str.14, i32 noundef 1271, ptr noundef @.str.67, i32 noundef %60)
  %62 = icmp ne i32 %61, 0
  br i1 %62, label %64, label %63

63:                                               ; preds = %55
  br label %65

64:                                               ; preds = %55
  store i32 1, ptr %7, align 4, !tbaa !13
  br label %65

65:                                               ; preds = %64, %63, %54, %25
  %66 = load ptr, ptr %5, align 8, !tbaa !17
  call void @SSL_free(ptr noundef %66)
  %67 = load ptr, ptr %6, align 8, !tbaa !19
  call void @ossl_quic_tserver_free(ptr noundef %67)
  %68 = load ptr, ptr %4, align 8, !tbaa !15
  call void @SSL_CTX_free(ptr noundef %68)
  %69 = load i32, ptr %7, align 4, !tbaa !13
  store i32 %69, ptr %2, align 4
  store i32 1, ptr %10, align 4
  br label %70

70:                                               ; preds = %65, %16
  call void @llvm.lifetime.end.p0(i64 4, ptr %9) #8
  call void @llvm.lifetime.end.p0(i64 4, ptr %8) #8
  call void @llvm.lifetime.end.p0(i64 4, ptr %7) #8
  call void @llvm.lifetime.end.p0(i64 8, ptr %6) #8
  call void @llvm.lifetime.end.p0(i64 8, ptr %5) #8
  call void @llvm.lifetime.end.p0(i64 8, ptr %4) #8
  %71 = load i32, ptr %2, align 4
  ret i32 %71
}