; Function Attrs: nounwind uwtable
define internal i32 @test_non_io_retry(i32 noundef %0) #1 {
  %2 = alloca ptr, align 8
  %3 = alloca ptr, align 8
  %4 = alloca i32, align 4
  call void @llvm.lifetime.start.p0(i64 8, ptr nonnull %2) #10
  store ptr null, ptr %2, align 8, !tbaa !13
  call void @llvm.lifetime.start.p0(i64 8, ptr nonnull %3) #10
  store ptr null, ptr %3, align 8, !tbaa !15
  call void @llvm.lifetime.start.p0(i64 4, ptr nonnull %4) #10
  store i32 0, ptr %4, align 4, !tbaa !19
  %5 = icmp sgt i32 %0, 0
  br i1 %5, label %6, label %10

6:                                                ; preds = %1
  %7 = tail call i32 @qtest_supports_blocking() #10
  %.not = icmp eq i32 %7, 0
  br i1 %.not, label %8, label %10

8:                                                ; preds = %6
  %9 = tail call i32 (ptr, i32, ptr, ...) @test_skip(ptr noundef nonnull @.str.14, i32 noundef 1253, ptr noundef nonnull @.str.61) #10
  br label %42

10:                                               ; preds = %6, %1
  %11 = load ptr, ptr @libctx, align 8, !tbaa !4
  %12 = tail call ptr @OSSL_QUIC_client_method() #10
  %13 = tail call ptr @SSL_CTX_new_ex(ptr noundef %11, ptr noundef null, ptr noundef %12) #10
  %14 = tail call i32 @test_ptr(ptr noundef nonnull @.str.14, i32 noundef 1256, ptr noundef nonnull @.str.62, ptr noundef %13) #10
  %.not9 = icmp eq i32 %14, 0
  br i1 %.not9, label %39, label %15

15:                                               ; preds = %10
  call void @SSL_CTX_set_cert_verify_callback(ptr noundef %13, ptr noundef nonnull @non_io_retry_cert_verify_cb, ptr noundef nonnull %4) #10
  %16 = zext i1 %5 to i32
  %17 = load ptr, ptr @libctx, align 8, !tbaa !4
  %18 = load ptr, ptr @cert, align 8, !tbaa !11
  %19 = load ptr, ptr @privkey, align 8, !tbaa !11
  %20 = call i32 @qtest_create_quic_objects(ptr noundef %17, ptr noundef %13, ptr noundef null, ptr noundef %18, ptr noundef %19, i32 noundef %16, ptr noundef nonnull %3, ptr noundef nonnull %2, ptr noundef null, ptr noundef null) #10
  %21 = icmp ne i32 %20, 0
  %22 = zext i1 %21 to i32
  %23 = call i32 @test_true(ptr noundef nonnull @.str.14, i32 noundef 1264, ptr noundef nonnull @.str.225, i32 noundef %22) #10
  %.not10 = icmp eq i32 %23, 0
  %.pre14 = load ptr, ptr %2, align 8, !tbaa !13
  br i1 %.not10, label %39, label %24

24:                                               ; preds = %15
  %25 = load ptr, ptr %3, align 8, !tbaa !15
  %26 = call i32 @qtest_create_quic_connection_ex(ptr noundef %25, ptr noundef %.pre14, i32 noundef 12) #10
  %27 = icmp ne i32 %26, 0
  %28 = zext i1 %27 to i32
  %29 = call i32 @test_true(ptr noundef nonnull @.str.14, i32 noundef 1266, ptr noundef nonnull @.str.226, i32 noundef %28) #10
  %.not11 = icmp eq i32 %29, 0
  %.pre15 = load ptr, ptr %2, align 8, !tbaa !13
  br i1 %.not11, label %39, label %30

30:                                               ; preds = %24
  %31 = call i32 @SSL_want(ptr noundef %.pre15) #10
  %32 = call i32 @test_int_eq(ptr noundef nonnull @.str.14, i32 noundef 1267, ptr noundef nonnull @.str.227, ptr noundef nonnull @.str.228, i32 noundef %31, i32 noundef 8) #10
  %.not12 = icmp eq i32 %32, 0
  %.pre16 = load ptr, ptr %2, align 8, !tbaa !13
  br i1 %.not12, label %39, label %33

33:                                               ; preds = %30
  store i32 1, ptr %4, align 4, !tbaa !19
  %34 = load ptr, ptr %3, align 8, !tbaa !15
  %35 = call i32 @qtest_create_quic_connection(ptr noundef %34, ptr noundef %.pre16) #10
  %36 = icmp ne i32 %35, 0
  %37 = zext i1 %36 to i32
  %38 = call i32 @test_true(ptr noundef nonnull @.str.14, i32 noundef 1271, ptr noundef nonnull @.str.67, i32 noundef %37) #10
  %.not13 = icmp ne i32 %38, 0
  %spec.select = zext i1 %.not13 to i32
  %.pre = load ptr, ptr %2, align 8, !tbaa !13
  br label %39

39:                                               ; preds = %33, %15, %24, %30, %10
  %40 = phi ptr [ %.pre16, %30 ], [ %.pre15, %24 ], [ %.pre14, %15 ], [ null, %10 ], [ %.pre, %33 ]
  %.0 = phi i32 [ 0, %30 ], [ 0, %24 ], [ 0, %15 ], [ 0, %10 ], [ %spec.select, %33 ]
  call void @SSL_free(ptr noundef %40) #10
  %41 = load ptr, ptr %3, align 8, !tbaa !15
  call void @ossl_quic_tserver_free(ptr noundef %41) #10
  call void @SSL_CTX_free(ptr noundef %13) #10
  br label %42

42:                                               ; preds = %39, %8
  %.08 = phi i32 [ %.0, %39 ], [ %9, %8 ]
  call void @llvm.lifetime.end.p0(i64 4, ptr nonnull %4) #10
  call void @llvm.lifetime.end.p0(i64 8, ptr nonnull %3) #10
  call void @llvm.lifetime.end.p0(i64 8, ptr nonnull %2) #10
  ret i32 %.08
}